target datalayout = "e-m:e-p270:32:32-p271:32:32-p272:64:64-i64:64-i128:128-f80:128-n8:16:32:64-S128"
target triple = "x86_64-pc-linux-gnu"

@do_fips = internal global i32 0, align 4
@.str.18 = private unnamed_addr constant [30 x i8] c"../openssl/test/threadstest.c\00", align 1
@global_lock = internal global ptr null, align 8
@multi_success = internal global i32 0, align 4
@multi_libctx = internal global ptr null, align 8
@.str.109 = private unnamed_addr constant [2 x i8] c"0\00", align 1
@.str.124 = private unnamed_addr constant [12 x i8] c"Hello World\00", align 1
@shared_evp_pkey = internal global ptr null, align 8
@.str.139 = private unnamed_addr constant [17 x i8] c"provider=default\00", align 1
@.str.140 = private unnamed_addr constant [14 x i8] c"provider=fips\00", align 1
@.str.141 = private unnamed_addr constant [4 x i8] c"ctx\00", align 1
@.str.142 = private unnamed_addr constant [27 x i8] c"EVP_PKEY_encrypt_init(ctx)\00", align 1
@.str.143 = private unnamed_addr constant [72 x i8] c"EVP_PKEY_encrypt(ctx, ctbuf, &ctlen, (unsigned char *)msg, strlen(msg))\00", align 1
@.str.144 = private unnamed_addr constant [27 x i8] c"EVP_PKEY_decrypt_init(ctx)\00", align 1
@.str.145 = private unnamed_addr constant [51 x i8] c"EVP_PKEY_decrypt(ctx, ptbuf, &ptlen, ctbuf, ctlen)\00", align 1
@.str.146 = private unnamed_addr constant [4 x i8] c"msg\00", align 1
@.str.147 = private unnamed_addr constant [6 x i8] c"ptbuf\00", align 1

; Function Attrs: nounwind uwtable
define internal void @multi_set_success(i32 noundef %0) #0 {
  %2 = alloca i32, align 4
  store i32 %0, ptr %2, align 4, !tbaa !4
  %3 = load ptr, ptr @global_lock, align 8, !tbaa !13
  %4 = call i32 @CRYPTO_THREAD_write_lock(ptr noundef %3)
  %5 = icmp eq i32 %4, 0
  br i1 %5, label %6, label %8

6:                                                ; preds = %1
  %7 = load i32, ptr %2, align 4, !tbaa !4
  store i32 %7, ptr @multi_success, align 4, !tbaa !4
  br label %12

8:                                                ; preds = %1
  %9 = load i32, ptr %2, align 4, !tbaa !4
  store i32 %9, ptr @multi_success, align 4, !tbaa !4
  %10 = load ptr, ptr @global_lock, align 8, !tbaa !13
  %11 = call i32 @CRYPTO_THREAD_unlock(ptr noundef %10)
  br label %12

12:                                               ; preds = %8, %6
  ret void
}

; Function Attrs: nounwind uwtable
define internal void @thread_shared_evp_pkey() #0 {
  %1 = alloca ptr, align 8
  %2 = alloca [256 x i8], align 16
  %3 = alloca [256 x i8], align 16
  %4 = alloca i64, align 8
  %5 = alloca i64, align 8
  %6 = alloca ptr, align 8
  %7 = alloca i32, align 4
  %8 = alloca i32, align 4
  call void @llvm.lifetime.start.p0(i64 8, ptr %1) #10
  store ptr @.str.124, ptr %1, align 8, !tbaa !8
  call void @llvm.lifetime.start.p0(i64 256, ptr %2) #10
  call void @llvm.lifetime.start.p0(i64 256, ptr %3) #10
  call void @llvm.lifetime.start.p0(i64 8, ptr %4) #10
  call void @llvm.lifetime.start.p0(i64 8, ptr %5) #10
  store i64 256, ptr %5, align 8, !tbaa !14
  call void @llvm.lifetime.start.p0(i64 8, ptr %6) #10
  store ptr null, ptr %6, align 8, !tbaa !61
  call void @llvm.lifetime.start.p0(i64 4, ptr %7) #10
  store i32 0, ptr %7, align 4, !tbaa !4
  call void @llvm.lifetime.start.p0(i64 4, ptr %8) #10
  store i32 0, ptr %8, align 4, !tbaa !4
  br label %9

9:                                                ; preds = %77, %0
  %10 = load i32, ptr %8, align 4, !tbaa !4
  %11 = load i32, ptr @do_fips, align 4, !tbaa !4
  %12 = add nsw i32 1, %11
  %13 = icmp slt i32 %10, %12
  br i1 %13, label %14, label %80

14:                                               ; preds = %9
  %15 = load i32, ptr %8, align 4, !tbaa !4
  %16 = icmp sgt i32 %15, 0
  br i1 %16, label %17, label %19

17:                                               ; preds = %14
  %18 = load ptr, ptr %6, align 8, !tbaa !61
  call void @EVP_PKEY_CTX_free(ptr noundef %18)
  br label %19

19:                                               ; preds = %17, %14
  %20 = load ptr, ptr @multi_libctx, align 8, !tbaa !20
  %21 = load ptr, ptr @shared_evp_pkey, align 8, !tbaa !18
  %22 = load i32, ptr %8, align 4, !tbaa !4
  %23 = icmp eq i32 %22, 0
  %24 = select i1 %23, ptr @.str.139, ptr @.str.140
  %25 = call ptr @EVP_PKEY_CTX_new_from_pkey(ptr noundef %20, ptr noundef %21, ptr noundef %24)
  store ptr %25, ptr %6, align 8, !tbaa !61
  %26 = load ptr, ptr %6, align 8, !tbaa !61
  %27 = call i32 @test_ptr(ptr noundef @.str.18, i32 noundef 909, ptr noundef @.str.141, ptr noundef %26)
  %28 = icmp ne i32 %27, 0
  br i1 %28, label %30, label %29

29:                                               ; preds = %19
  br label %81

30:                                               ; preds = %19
  %31 = load ptr, ptr %6, align 8, !tbaa !61
  %32 = call i32 @EVP_PKEY_encrypt_init(ptr noundef %31)
  %33 = call i32 @test_int_ge(ptr noundef @.str.18, i32 noundef 912, ptr noundef @.str.142, ptr noundef @.str.109, i32 noundef %32, i32 noundef 0)
  %34 = icmp ne i32 %33, 0
  br i1 %34, label %35, label %44

35:                                               ; preds = %30
  %36 = load ptr, ptr %6, align 8, !tbaa !61
  %37 = getelementptr inbounds [256 x i8], ptr %2, i64 0, i64 0
  %38 = load ptr, ptr %1, align 8, !tbaa !8
  %39 = load ptr, ptr %1, align 8, !tbaa !8
  %40 = call i64 @strlen(ptr noundef %39) #12
  %41 = call i32 @EVP_PKEY_encrypt(ptr noundef %36, ptr noundef %37, ptr noundef %5, ptr noundef %38, i64 noundef %40)
  %42 = call i32 @test_int_ge(ptr noundef @.str.18, i32 noundef 915, ptr noundef @.str.143, ptr noundef @.str.109, i32 noundef %41, i32 noundef 0)
  %43 = icmp ne i32 %42, 0
  br i1 %43, label %45, label %44

44:                                               ; preds = %35, %30
  br label %81

45:                                               ; preds = %35
  %46 = load ptr, ptr %6, align 8, !tbaa !61
  call void @EVP_PKEY_CTX_free(ptr noundef %46)
  %47 = load ptr, ptr @multi_libctx, align 8, !tbaa !20
  %48 = load ptr, ptr @shared_evp_pkey, align 8, !tbaa !18
  %49 = call ptr @EVP_PKEY_CTX_new_from_pkey(ptr noundef %47, ptr noundef %48, ptr noundef null)
  store ptr %49, ptr %6, align 8, !tbaa !61
  %50 = load ptr, ptr %6, align 8, !tbaa !61
  %51 = call i32 @test_ptr(ptr noundef @.str.18, i32 noundef 921, ptr noundef @.str.141, ptr noundef %50)
  %52 = icmp ne i32 %51, 0
  br i1 %52, label %54, label %53

53:                                               ; preds = %45
  br label %81

54:                                               ; preds = %45
  store i64 256, ptr %4, align 8, !tbaa !14
  %55 = load ptr, ptr %6, align 8, !tbaa !61
  %56 = call i32 @EVP_PKEY_decrypt_init(ptr noundef %55)
  %57 = call i32 @test_int_ge(ptr noundef @.str.18, i32 noundef 925, ptr noundef @.str.144, ptr noundef @.str.109, i32 noundef %56, i32 noundef 0)
  %58 = icmp ne i32 %57, 0
  br i1 %58, label %59, label %75

59:                                               ; preds = %54
  %60 = load ptr, ptr %6, align 8, !tbaa !61
  %61 = getelementptr inbounds [256 x i8], ptr %3, i64 0, i64 0
  %62 = getelementptr inbounds [256 x i8], ptr %2, i64 0, i64 0
  %63 = load i64, ptr %5, align 8, !tbaa !14
  %64 = call i32 @EVP_PKEY_decrypt(ptr noundef %60, ptr noundef %61, ptr noundef %4, ptr noundef %62, i64 noundef %63)
  %65 = call i32 @test_int_gt(ptr noundef @.str.18, i32 noundef 927, ptr noundef @.str.145, ptr noundef @.str.109, i32 noundef %64, i32 noundef 0)
  %66 = icmp ne i32 %65, 0
  br i1 %66, label %67, label %75

67:                                               ; preds = %59
  %68 = load ptr, ptr %1, align 8, !tbaa !8
  %69 = load ptr, ptr %1, align 8, !tbaa !8
  %70 = call i64 @strlen(ptr noundef %69) #12
  %71 = getelementptr inbounds [256 x i8], ptr %3, i64 0, i64 0
  %72 = load i64, ptr %4, align 8, !tbaa !14
  %73 = call i32 @test_mem_eq(ptr noundef @.str.18, i32 noundef 928, ptr noundef @.str.146, ptr noundef @.str.147, ptr noundef %68, i64 noundef %70, ptr noundef %71, i64 noundef %72)
  %74 = icmp ne i32 %73, 0
  br i1 %74, label %76, label %75

75:                                               ; preds = %67, %59, %54
  br label %81

76:                                               ; preds = %67
  br label %77

77:                                               ; preds = %76
  %78 = load i32, ptr %8, align 4, !tbaa !4
  %79 = add nsw i32 %78, 1
  store i32 %79, ptr %8, align 4, !tbaa !4
  br label %9, !llvm.loop !63

80:                                               ; preds = %9
  store i32 1, ptr %7, align 4, !tbaa !4
  br label %81

81:                                               ; preds = %80, %75, %53, %44, %29
  %82 = load ptr, ptr %6, align 8, !tbaa !61
  call void @EVP_PKEY_CTX_free(ptr noundef %82)
  %83 = load i32, ptr %7, align 4, !tbaa !4
  %84 = icmp ne i32 %83, 0
  br i1 %84, label %86, label %85

85:                                               ; preds = %81
  call void @multi_set_success(i32 noundef 0)
  br label %86

86:                                               ; preds = %85, %81
  call void @llvm.lifetime.end.p0(i64 4, ptr %8) #10
  call void @llvm.lifetime.end.p0(i64 4, ptr %7) #10
  call void @llvm.lifetime.end.p0(i64 8, ptr %6) #10
  call void @llvm.lifetime.end.p0(i64 8, ptr %5) #10
  call void @llvm.lifetime.end.p0(i64 8, ptr %4) #10
  call void @llvm.lifetime.end.p0(i64 256, ptr %3) #10
  call void @llvm.lifetime.end.p0(i64 256, ptr %2) #10
  call void @llvm.lifetime.end.p0(i64 8, ptr %1) #10
  ret void
}