; Function Attrs: nounwind uwtable
define internal void @thread_shared_evp_pkey() #1 {
  %1 = alloca [256 x i8], align 16
  %2 = alloca [256 x i8], align 16
  %3 = alloca i64, align 8
  %4 = alloca i64, align 8
  call void @llvm.lifetime.start.p0(i64 256, ptr nonnull %1) #11
  call void @llvm.lifetime.start.p0(i64 256, ptr nonnull %2) #11
  call void @llvm.lifetime.start.p0(i64 8, ptr nonnull %3) #11
  call void @llvm.lifetime.start.p0(i64 8, ptr nonnull %4) #11
  store i64 256, ptr %4, align 8, !tbaa !12
  br label %7

5:                                                ; preds = %33
  %.b = load i1, ptr @do_fips, align 4
  %6 = and i1 %.b, %.not
  br i1 %6, label %7, label %.critedge, !llvm.loop !40

7:                                                ; preds = %0, %5
  %.not = phi i1 [ true, %0 ], [ false, %5 ]
  %.01829 = phi ptr [ null, %0 ], [ %24, %5 ]
  br i1 %.not, label %9, label %8

8:                                                ; preds = %7
  call void @EVP_PKEY_CTX_free(ptr noundef %.01829) #11
  br label %9

9:                                                ; preds = %8, %7
  %10 = phi ptr [ @.str.140, %8 ], [ @.str.139, %7 ]
  %11 = load ptr, ptr @multi_libctx, align 8, !tbaa !16
  %12 = load ptr, ptr @shared_evp_pkey, align 8, !tbaa !18
  %13 = call ptr @EVP_PKEY_CTX_new_from_pkey(ptr noundef %11, ptr noundef %12, ptr noundef nonnull %10) #11
  %14 = call i32 @test_ptr(ptr noundef nonnull @.str.18, i32 noundef 909, ptr noundef nonnull @.str.141, ptr noundef %13) #11
  %.not19 = icmp eq i32 %14, 0
  br i1 %.not19, label %36, label %15

15:                                               ; preds = %9
  %16 = call i32 @EVP_PKEY_encrypt_init(ptr noundef %13) #11
  %17 = call i32 @test_int_ge(ptr noundef nonnull @.str.18, i32 noundef 912, ptr noundef nonnull @.str.142, ptr noundef nonnull @.str.109, i32 noundef %16, i32 noundef 0) #11
  %.not20 = icmp eq i32 %17, 0
  br i1 %.not20, label %36, label %18

18:                                               ; preds = %15
  %19 = call i32 @EVP_PKEY_encrypt(ptr noundef %13, ptr noundef nonnull %1, ptr noundef nonnull %4, ptr noundef nonnull @.str.124, i64 noundef 11) #11
  %20 = call i32 @test_int_ge(ptr noundef nonnull @.str.18, i32 noundef 915, ptr noundef nonnull @.str.143, ptr noundef nonnull @.str.109, i32 noundef %19, i32 noundef 0) #11
  %.not21 = icmp eq i32 %20, 0
  br i1 %.not21, label %36, label %21

21:                                               ; preds = %18
  call void @EVP_PKEY_CTX_free(ptr noundef %13) #11
  %22 = load ptr, ptr @multi_libctx, align 8, !tbaa !16
  %23 = load ptr, ptr @shared_evp_pkey, align 8, !tbaa !18
  %24 = call ptr @EVP_PKEY_CTX_new_from_pkey(ptr noundef %22, ptr noundef %23, ptr noundef null) #11
  %25 = call i32 @test_ptr(ptr noundef nonnull @.str.18, i32 noundef 921, ptr noundef nonnull @.str.141, ptr noundef %24) #11
  %.not22 = icmp eq i32 %25, 0
  br i1 %.not22, label %36, label %26

26:                                               ; preds = %21
  store i64 256, ptr %3, align 8, !tbaa !12
  %27 = call i32 @EVP_PKEY_decrypt_init(ptr noundef %24) #11
  %28 = call i32 @test_int_ge(ptr noundef nonnull @.str.18, i32 noundef 925, ptr noundef nonnull @.str.144, ptr noundef nonnull @.str.109, i32 noundef %27, i32 noundef 0) #11
  %.not23 = icmp eq i32 %28, 0
  br i1 %.not23, label %36, label %29

29:                                               ; preds = %26
  %30 = load i64, ptr %4, align 8, !tbaa !12
  %31 = call i32 @EVP_PKEY_decrypt(ptr noundef %24, ptr noundef nonnull %2, ptr noundef nonnull %3, ptr noundef nonnull %1, i64 noundef %30) #11
  %32 = call i32 @test_int_gt(ptr noundef nonnull @.str.18, i32 noundef 927, ptr noundef nonnull @.str.145, ptr noundef nonnull @.str.109, i32 noundef %31, i32 noundef 0) #11
  %.not24 = icmp eq i32 %32, 0
  br i1 %.not24, label %36, label %33

33:                                               ; preds = %29
  %34 = load i64, ptr %3, align 8, !tbaa !12
  %35 = call i32 @test_mem_eq(ptr noundef nonnull @.str.18, i32 noundef 928, ptr noundef nonnull @.str.146, ptr noundef nonnull @.str.147, ptr noundef nonnull @.str.124, i64 noundef 11, ptr noundef nonnull %2, i64 noundef %34) #11
  %.not25 = icmp eq i32 %35, 0
  br i1 %.not25, label %36, label %5

36:                                               ; preds = %9, %18, %15, %21, %33, %29, %26
  %.1 = phi ptr [ %24, %33 ], [ %24, %29 ], [ %24, %26 ], [ %24, %21 ], [ %13, %18 ], [ %13, %15 ], [ %13, %9 ]
  call void @EVP_PKEY_CTX_free(ptr noundef %.1) #11
  %37 = load ptr, ptr @global_lock, align 8, !tbaa !11
  %38 = call i32 @CRYPTO_THREAD_write_lock(ptr noundef %37) #11
  %39 = icmp eq i32 %38, 0
  store i1 false, ptr @multi_success, align 4
  br i1 %39, label %multi_set_success.exit, label %40

40:                                               ; preds = %36
  %41 = load ptr, ptr @global_lock, align 8, !tbaa !11
  %42 = call i32 @CRYPTO_THREAD_unlock(ptr noundef %41) #11
  br label %multi_set_success.exit

.critedge:                                        ; preds = %5
  call void @EVP_PKEY_CTX_free(ptr noundef %24) #11
  br label %multi_set_success.exit

multi_set_success.exit:                           ; preds = %40, %36, %.critedge
  call void @llvm.lifetime.end.p0(i64 8, ptr nonnull %4) #11
  call void @llvm.lifetime.end.p0(i64 8, ptr nonnull %3) #11
  call void @llvm.lifetime.end.p0(i64 256, ptr nonnull %2) #11
  call void @llvm.lifetime.end.p0(i64 256, ptr nonnull %1) #11
  ret void
}